target datalayout = "e-m:e-p270:32:32-p271:32:32-p272:64:64-i64:64-i128:128-f80:128-n8:16:32:64-S128"
target triple = "x86_64-pc-linux-gnu"

%struct.SDL_FRect = type { float, float, float, float }

@.str = private unnamed_addr constant [26 x i8] c"Parameter '%s' is invalid\00", align 1
@.str.6 = private unnamed_addr constant [2 x i8] c"A\00", align 1
@.str.7 = private unnamed_addr constant [2 x i8] c"B\00", align 1
@.str.8 = private unnamed_addr constant [29 x i8] c"Potential rect math overflow\00", align 1
@.str.9 = private unnamed_addr constant [7 x i8] c"result\00", align 1

; Function Attrs: alwaysinline nounwind uwtable
define internal zeroext i1 @SDL_RectEmptyFloat(ptr noundef %0) #3 {
  %2 = alloca ptr, align 8
  store ptr %0, ptr %2, align 8
  %3 = load ptr, ptr %2, align 8
  %4 = icmp ne ptr %3, null
  br i1 %4, label %5, label %15

5:                                                ; preds = %1
  %6 = load ptr, ptr %2, align 8
  %7 = getelementptr inbounds nuw %struct.SDL_FRect, ptr %6, i32 0, i32 2
  %8 = load float, ptr %7, align 4
  %9 = fcmp olt float %8, 0.000000e+00
  br i1 %9, label %15, label %10

10:                                               ; preds = %5
  %11 = load ptr, ptr %2, align 8
  %12 = getelementptr inbounds nuw %struct.SDL_FRect, ptr %11, i32 0, i32 3
  %13 = load float, ptr %12, align 4
  %14 = fcmp olt float %13, 0.000000e+00
  br label %15

15:                                               ; preds = %10, %5, %1
  %16 = phi i1 [ true, %5 ], [ true, %1 ], [ %14, %10 ]
  %17 = select i1 %16, i32 1, i32 0
  %18 = icmp ne i32 %17, 0
  ret i1 %18
}

; Function Attrs: nounwind uwtable
define internal zeroext i1 @SDL_RectCanOverflowFloat(ptr noundef %0) #0 {
  %2 = alloca i1, align 1
  %3 = alloca ptr, align 8
  store ptr %0, ptr %3, align 8
  %4 = load ptr, ptr %3, align 8
  %5 = getelementptr inbounds nuw %struct.SDL_FRect, ptr %4, i32 0, i32 0
  %6 = load float, ptr %5, align 4
  %7 = fcmp ole float %6, 0xC1D0000000000000
  br i1 %7, label %33, label %8

8:                                                ; preds = %1
  %9 = load ptr, ptr %3, align 8
  %10 = getelementptr inbounds nuw %struct.SDL_FRect, ptr %9, i32 0, i32 0
  %11 = load float, ptr %10, align 4
  %12 = fcmp oge float %11, 0x41D0000000000000
  br i1 %12, label %33, label %13

13:                                               ; preds = %8
  %14 = load ptr, ptr %3, align 8
  %15 = getelementptr inbounds nuw %struct.SDL_FRect, ptr %14, i32 0, i32 1
  %16 = load float, ptr %15, align 4
  %17 = fcmp ole float %16, 0xC1D0000000000000
  br i1 %17, label %33, label %18

18:                                               ; preds = %13
  %19 = load ptr, ptr %3, align 8
  %20 = getelementptr inbounds nuw %struct.SDL_FRect, ptr %19, i32 0, i32 1
  %21 = load float, ptr %20, align 4
  %22 = fcmp oge float %21, 0x41D0000000000000
  br i1 %22, label %33, label %23

23:                                               ; preds = %18
  %24 = load ptr, ptr %3, align 8
  %25 = getelementptr inbounds nuw %struct.SDL_FRect, ptr %24, i32 0, i32 2
  %26 = load float, ptr %25, align 4
  %27 = fcmp oge float %26, 0x41D0000000000000
  br i1 %27, label %33, label %28

28:                                               ; preds = %23
  %29 = load ptr, ptr %3, align 8
  %30 = getelementptr inbounds nuw %struct.SDL_FRect, ptr %29, i32 0, i32 3
  %31 = load float, ptr %30, align 4
  %32 = fcmp oge float %31, 0x41D0000000000000
  br i1 %32, label %33, label %34

33:                                               ; preds = %28, %23, %18, %13, %8, %1
  store i1 true, ptr %2, align 1
  br label %35

34:                                               ; preds = %28
  store i1 false, ptr %2, align 1
  br label %35

35:                                               ; preds = %34, %33
  %36 = load i1, ptr %2, align 1
  ret i1 %36
}

; Function Attrs: nounwind uwtable
define hidden zeroext i1 @SDL_GetRectIntersectionFloat_REAL(ptr noundef %0, ptr noundef %1, ptr noundef %2) #0 {
  %4 = alloca i1, align 1
  %5 = alloca ptr, align 8
  %6 = alloca ptr, align 8
  %7 = alloca ptr, align 8
  %8 = alloca float, align 4
  %9 = alloca float, align 4
  %10 = alloca float, align 4
  %11 = alloca float, align 4
  %12 = alloca i32, align 4
  store ptr %0, ptr %5, align 8
  store ptr %1, ptr %6, align 8
  store ptr %2, ptr %7, align 8
  call void @llvm.lifetime.start.p0(i64 4, ptr %8) #6
  call void @llvm.lifetime.start.p0(i64 4, ptr %9) #6
  call void @llvm.lifetime.start.p0(i64 4, ptr %10) #6
  call void @llvm.lifetime.start.p0(i64 4, ptr %11) #6
  %13 = load ptr, ptr %5, align 8
  %14 = icmp ne ptr %13, null
  br i1 %14, label %17, label %15

15:                                               ; preds = %3
  %16 = call zeroext i1 (ptr, ...) @SDL_SetError_REAL(ptr noundef @.str, ptr noundef @.str.6)
  store i1 false, ptr %4, align 1
  store i32 1, ptr %12, align 4
  br label %126

17:                                               ; preds = %3
  %18 = load ptr, ptr %6, align 8
  %19 = icmp ne ptr %18, null
  br i1 %19, label %22, label %20

20:                                               ; preds = %17
  %21 = call zeroext i1 (ptr, ...) @SDL_SetError_REAL(ptr noundef @.str, ptr noundef @.str.7)
  store i1 false, ptr %4, align 1
  store i32 1, ptr %12, align 4
  br label %126

22:                                               ; preds = %17
  %23 = load ptr, ptr %5, align 8
  %24 = call zeroext i1 @SDL_RectCanOverflowFloat(ptr noundef %23)
  br i1 %24, label %28, label %25

25:                                               ; preds = %22
  %26 = load ptr, ptr %6, align 8
  %27 = call zeroext i1 @SDL_RectCanOverflowFloat(ptr noundef %26)
  br i1 %27, label %28, label %30

28:                                               ; preds = %25, %22
  %29 = call zeroext i1 (ptr, ...) @SDL_SetError_REAL(ptr noundef @.str.8)
  store i1 false, ptr %4, align 1
  store i32 1, ptr %12, align 4
  br label %126

30:                                               ; preds = %25
  %31 = load ptr, ptr %7, align 8
  %32 = icmp ne ptr %31, null
  br i1 %32, label %35, label %33

33:                                               ; preds = %30
  %34 = call zeroext i1 (ptr, ...) @SDL_SetError_REAL(ptr noundef @.str, ptr noundef @.str.9)
  store i1 false, ptr %4, align 1
  store i32 1, ptr %12, align 4
  br label %126

35:                                               ; preds = %30
  %36 = load ptr, ptr %5, align 8
  %37 = call zeroext i1 @SDL_RectEmptyFloat(ptr noundef %36)
  br i1 %37, label %41, label %38

38:                                               ; preds = %35
  %39 = load ptr, ptr %6, align 8
  %40 = call zeroext i1 @SDL_RectEmptyFloat(ptr noundef %39)
  br i1 %40, label %41, label %46

41:                                               ; preds = %38, %35
  %42 = load ptr, ptr %7, align 8
  %43 = getelementptr inbounds nuw %struct.SDL_FRect, ptr %42, i32 0, i32 2
  store float 0.000000e+00, ptr %43, align 4
  %44 = load ptr, ptr %7, align 8
  %45 = getelementptr inbounds nuw %struct.SDL_FRect, ptr %44, i32 0, i32 3
  store float 0.000000e+00, ptr %45, align 4
  store i1 false, ptr %4, align 1
  store i32 1, ptr %12, align 4
  br label %126

46:                                               ; preds = %38
  br label %47

47:                                               ; preds = %46
  br label %48

48:                                               ; preds = %47
  br label %49

49:                                               ; preds = %48
  br label %50

50:                                               ; preds = %49
  %51 = load ptr, ptr %5, align 8
  %52 = getelementptr inbounds nuw %struct.SDL_FRect, ptr %51, i32 0, i32 0
  %53 = load float, ptr %52, align 4
  store float %53, ptr %8, align 4
  %54 = load float, ptr %8, align 4
  %55 = load ptr, ptr %5, align 8
  %56 = getelementptr inbounds nuw %struct.SDL_FRect, ptr %55, i32 0, i32 2
  %57 = load float, ptr %56, align 4
  %58 = fadd float %54, %57
  store float %58, ptr %9, align 4
  %59 = load ptr, ptr %6, align 8
  %60 = getelementptr inbounds nuw %struct.SDL_FRect, ptr %59, i32 0, i32 0
  %61 = load float, ptr %60, align 4
  store float %61, ptr %10, align 4
  %62 = load float, ptr %10, align 4
  %63 = load ptr, ptr %6, align 8
  %64 = getelementptr inbounds nuw %struct.SDL_FRect, ptr %63, i32 0, i32 2
  %65 = load float, ptr %64, align 4
  %66 = fadd float %62, %65
  store float %66, ptr %11, align 4
  %67 = load float, ptr %10, align 4
  %68 = load float, ptr %8, align 4
  %69 = fcmp ogt float %67, %68
  br i1 %69, label %70, label %72

70:                                               ; preds = %50
  %71 = load float, ptr %10, align 4
  store float %71, ptr %8, align 4
  br label %72

72:                                               ; preds = %70, %50
  %73 = load float, ptr %8, align 4
  %74 = load ptr, ptr %7, align 8
  %75 = getelementptr inbounds nuw %struct.SDL_FRect, ptr %74, i32 0, i32 0
  store float %73, ptr %75, align 4
  %76 = load float, ptr %11, align 4
  %77 = load float, ptr %9, align 4
  %78 = fcmp olt float %76, %77
  br i1 %78, label %79, label %81

79:                                               ; preds = %72
  %80 = load float, ptr %11, align 4
  store float %80, ptr %9, align 4
  br label %81

81:                                               ; preds = %79, %72
  %82 = load float, ptr %9, align 4
  %83 = load float, ptr %8, align 4
  %84 = fsub float %82, %83
  %85 = load ptr, ptr %7, align 8
  %86 = getelementptr inbounds nuw %struct.SDL_FRect, ptr %85, i32 0, i32 2
  store float %84, ptr %86, align 4
  %87 = load ptr, ptr %5, align 8
  %88 = getelementptr inbounds nuw %struct.SDL_FRect, ptr %87, i32 0, i32 1
  %89 = load float, ptr %88, align 4
  store float %89, ptr %8, align 4
  %90 = load float, ptr %8, align 4
  %91 = load ptr, ptr %5, align 8
  %92 = getelementptr inbounds nuw %struct.SDL_FRect, ptr %91, i32 0, i32 3
  %93 = load float, ptr %92, align 4
  %94 = fadd float %90, %93
  store float %94, ptr %9, align 4
  %95 = load ptr, ptr %6, align 8
  %96 = getelementptr inbounds nuw %struct.SDL_FRect, ptr %95, i32 0, i32 1
  %97 = load float, ptr %96, align 4
  store float %97, ptr %10, align 4
  %98 = load float, ptr %10, align 4
  %99 = load ptr, ptr %6, align 8
  %100 = getelementptr inbounds nuw %struct.SDL_FRect, ptr %99, i32 0, i32 3
  %101 = load float, ptr %100, align 4
  %102 = fadd float %98, %101
  store float %102, ptr %11, align 4
  %103 = load float, ptr %10, align 4
  %104 = load float, ptr %8, align 4
  %105 = fcmp ogt float %103, %104
  br i1 %105, label %106, label %108

106:                                              ; preds = %81
  %107 = load float, ptr %10, align 4
  store float %107, ptr %8, align 4
  br label %108

108:                                              ; preds = %106, %81
  %109 = load float, ptr %8, align 4
  %110 = load ptr, ptr %7, align 8
  %111 = getelementptr inbounds nuw %struct.SDL_FRect, ptr %110, i32 0, i32 1
  store float %109, ptr %111, align 4
  %112 = load float, ptr %11, align 4
  %113 = load float, ptr %9, align 4
  %114 = fcmp olt float %112, %113
  br i1 %114, label %115, label %117

115:                                              ; preds = %108
  %116 = load float, ptr %11, align 4
  store float %116, ptr %9, align 4
  br label %117

117:                                              ; preds = %115, %108
  %118 = load float, ptr %9, align 4
  %119 = load float, ptr %8, align 4
  %120 = fsub float %118, %119
  %121 = load ptr, ptr %7, align 8
  %122 = getelementptr inbounds nuw %struct.SDL_FRect, ptr %121, i32 0, i32 3
  store float %120, ptr %122, align 4
  %123 = load ptr, ptr %7, align 8
  %124 = call zeroext i1 @SDL_RectEmptyFloat(ptr noundef %123)
  %125 = xor i1 %124, true
  store i1 %125, ptr %4, align 1
  store i32 1, ptr %12, align 4
  br label %126

126:                                              ; preds = %117, %41, %33, %28, %20, %15
  call void @llvm.lifetime.end.p0(i64 4, ptr %11) #6
  call void @llvm.lifetime.end.p0(i64 4, ptr %10) #6
  call void @llvm.lifetime.end.p0(i64 4, ptr %9) #6
  call void @llvm.lifetime.end.p0(i64 4, ptr %8) #6
  %127 = load i1, ptr %4, align 1
  ret i1 %127
}