; Function Attrs: nounwind uwtable
define hidden zeroext i1 @SDL_GetRectIntersectionFloat_REAL(ptr noundef readonly captures(address_is_null) %0, ptr noundef readonly captures(address_is_null) %1, ptr noundef writeonly captures(address_is_null) %2) local_unnamed_addr #0 {
  %.not = icmp eq ptr %0, null
  br i1 %.not, label %4, label %6

4:                                                ; preds = %3
  %5 = tail call zeroext i1 (ptr, ...) @SDL_SetError_REAL(ptr noundef nonnull @.str, ptr noundef nonnull @.str.6) #5
  br label %67

6:                                                ; preds = %3
  %.not59 = icmp eq ptr %1, null
  br i1 %.not59, label %7, label %9

7:                                                ; preds = %6
  %8 = tail call zeroext i1 (ptr, ...) @SDL_SetError_REAL(ptr noundef nonnull @.str, ptr noundef nonnull @.str.7) #5
  br label %67

9:                                                ; preds = %6
  %10 = load float, ptr %0, align 4
  %11 = tail call float @llvm.fabs.f32(float %10)
  %or.cond.i = fcmp ult float %11, 0x41D0000000000000
  br i1 %or.cond.i, label %12, label %SDL_RectCanOverflowFloat.exit.thread

12:                                               ; preds = %9
  %13 = getelementptr inbounds nuw i8, ptr %0, i64 4
  %14 = load float, ptr %13, align 4
  %15 = tail call float @llvm.fabs.f32(float %14)
  %or.cond9.i = fcmp ult float %15, 0x41D0000000000000
  br i1 %or.cond9.i, label %16, label %SDL_RectCanOverflowFloat.exit.thread

16:                                               ; preds = %12
  %17 = getelementptr inbounds nuw i8, ptr %0, i64 8
  %18 = load float, ptr %17, align 4
  %19 = fcmp ult float %18, 0x41D0000000000000
  br i1 %19, label %20, label %SDL_RectCanOverflowFloat.exit.thread

20:                                               ; preds = %16
  %21 = getelementptr inbounds nuw i8, ptr %0, i64 12
  %22 = load float, ptr %21, align 4
  %23 = fcmp ult float %22, 0x41D0000000000000
  br i1 %23, label %SDL_RectCanOverflowFloat.exit, label %SDL_RectCanOverflowFloat.exit.thread

SDL_RectCanOverflowFloat.exit:                    ; preds = %20
  %24 = load float, ptr %1, align 4
  %25 = tail call float @llvm.fabs.f32(float %24)
  %or.cond.i63 = fcmp ult float %25, 0x41D0000000000000
  br i1 %or.cond.i63, label %26, label %SDL_RectCanOverflowFloat.exit.thread

26:                                               ; preds = %SDL_RectCanOverflowFloat.exit
  %27 = getelementptr inbounds nuw i8, ptr %1, i64 4
  %28 = load float, ptr %27, align 4
  %29 = tail call float @llvm.fabs.f32(float %28)
  %or.cond9.i65 = fcmp ult float %29, 0x41D0000000000000
  br i1 %or.cond9.i65, label %30, label %SDL_RectCanOverflowFloat.exit.thread

30:                                               ; preds = %26
  %31 = getelementptr inbounds nuw i8, ptr %1, i64 8
  %32 = load float, ptr %31, align 4
  %33 = fcmp ult float %32, 0x41D0000000000000
  br i1 %33, label %34, label %SDL_RectCanOverflowFloat.exit.thread

34:                                               ; preds = %30
  %35 = getelementptr inbounds nuw i8, ptr %1, i64 12
  %36 = load float, ptr %35, align 4
  %37 = fcmp ult float %36, 0x41D0000000000000
  br i1 %37, label %SDL_RectCanOverflowFloat.exit66, label %SDL_RectCanOverflowFloat.exit.thread

SDL_RectCanOverflowFloat.exit.thread:             ; preds = %SDL_RectCanOverflowFloat.exit, %26, %30, %34, %9, %12, %16, %20
  %38 = tail call zeroext i1 (ptr, ...) @SDL_SetError_REAL(ptr noundef nonnull @.str.8) #5
  br label %67

SDL_RectCanOverflowFloat.exit66:                  ; preds = %34
  %.not60 = icmp eq ptr %2, null
  br i1 %.not60, label %39, label %41

39:                                               ; preds = %SDL_RectCanOverflowFloat.exit66
  %40 = tail call zeroext i1 (ptr, ...) @SDL_SetError_REAL(ptr noundef nonnull @.str, ptr noundef nonnull @.str.9) #5
  br label %67

41:                                               ; preds = %SDL_RectCanOverflowFloat.exit66
  %42 = fcmp olt float %18, 0.000000e+00
  %43 = fcmp olt float %22, 0.000000e+00
  %or.cond = or i1 %42, %43
  %44 = fcmp olt float %32, 0.000000e+00
  %or.cond72 = or i1 %or.cond, %44
  %45 = fcmp olt float %36, 0.000000e+00
  %or.cond73 = or i1 %or.cond72, %45
  br i1 %or.cond73, label %SDL_RectEmptyFloat.exit62.thread, label %SDL_RectEmptyFloat.exit

SDL_RectEmptyFloat.exit62.thread:                 ; preds = %41
  %46 = getelementptr inbounds nuw i8, ptr %2, i64 8
  store float 0.000000e+00, ptr %46, align 4
  %47 = getelementptr inbounds nuw i8, ptr %2, i64 12
  store float 0.000000e+00, ptr %47, align 4
  br label %67

SDL_RectEmptyFloat.exit:                          ; preds = %41
  %48 = fadd float %10, %18
  %49 = fadd float %24, %32
  %50 = fcmp ogt float %24, %10
  %.045 = select i1 %50, float %24, float %10
  store float %.045, ptr %2, align 4
  %51 = fcmp olt float %49, %48
  %.0 = select i1 %51, float %49, float %48
  %52 = fsub float %.0, %.045
  %53 = getelementptr inbounds nuw i8, ptr %2, i64 8
  store float %52, ptr %53, align 4
  %54 = load float, ptr %13, align 4
  %55 = load float, ptr %21, align 4
  %56 = fadd float %54, %55
  %57 = load float, ptr %27, align 4
  %58 = load float, ptr %35, align 4
  %59 = fadd float %57, %58
  %60 = fcmp ogt float %57, %54
  %.146 = select i1 %60, float %57, float %54
  %61 = getelementptr inbounds nuw i8, ptr %2, i64 4
  store float %.146, ptr %61, align 4
  %62 = fcmp olt float %59, %56
  %.1 = select i1 %62, float %59, float %56
  %63 = fsub float %.1, %.146
  %64 = getelementptr inbounds nuw i8, ptr %2, i64 12
  store float %63, ptr %64, align 4
  %65 = fcmp uge float %52, 0.000000e+00
  %66 = fcmp uge float %63, 0.000000e+00
  %.not71 = select i1 %65, i1 %66, i1 false
  br label %67

67:                                               ; preds = %SDL_RectEmptyFloat.exit, %SDL_RectEmptyFloat.exit62.thread, %39, %SDL_RectCanOverflowFloat.exit.thread, %7, %4
  %.047 = phi i1 [ false, %SDL_RectCanOverflowFloat.exit.thread ], [ false, %SDL_RectEmptyFloat.exit62.thread ], [ %.not71, %SDL_RectEmptyFloat.exit ], [ false, %39 ], [ false, %7 ], [ false, %4 ]
  ret i1 %.047
}